target datalayout = "e-m:e-p270:32:32-p271:32:32-p272:64:64-i64:64-i128:128-f80:128-n8:16:32:64-S128"
target triple = "x86_64-pc-linux-gnu"

%struct.ForEachState = type { ptr, i32 }
%struct.List = type { i32, i32, i32, ptr, [0 x %union.ListCell] }
%union.ListCell = type { ptr }
%struct.QueryDesc = type { i32, ptr, ptr, ptr, ptr, ptr, ptr, ptr, i32, ptr, ptr, ptr, i8, ptr }
%struct.EState = type { i32, i32, ptr, ptr, ptr, i32, ptr, ptr, ptr, ptr, ptr, ptr, ptr, ptr, ptr, ptr, i32, ptr, ptr, ptr, ptr, ptr, ptr, ptr, ptr, ptr, ptr, i64, i64, i32, i32, i8, ptr, ptr, ptr, ptr, ptr, i8, i32, i32, ptr, i32, ptr, ptr, ptr, ptr }

@.str.44 = private unnamed_addr constant [9 x i8] c"Triggers\00", align 1

; Function Attrs: inlinehint nounwind uwtable
define internal i32 @list_length(ptr noundef %0) #6 {
  %2 = alloca ptr, align 8
  store ptr %0, ptr %2, align 8
  %3 = load ptr, ptr %2, align 8
  %4 = icmp ne ptr %3, null
  br i1 %4, label %5, label %9

5:                                                ; preds = %1
  %6 = load ptr, ptr %2, align 8
  %7 = getelementptr inbounds nuw %struct.List, ptr %6, i32 0, i32 1
  %8 = load i32, ptr %7, align 4
  br label %10

9:                                                ; preds = %1
  br label %10

10:                                               ; preds = %9, %5
  %11 = phi i32 [ %8, %5 ], [ 0, %9 ]
  ret i32 %11
}

; Function Attrs: nounwind uwtable
define dso_local void @ExplainPrintTriggers(ptr noundef %0, ptr noundef %1) #0 {
  %3 = alloca ptr, align 8
  %4 = alloca ptr, align 8
  %5 = alloca ptr, align 8
  %6 = alloca i8, align 1
  %7 = alloca ptr, align 8
  %8 = alloca ptr, align 8
  %9 = alloca ptr, align 8
  %10 = alloca ptr, align 8
  %11 = alloca %struct.ForEachState, align 8
  %12 = alloca %struct.ForEachState, align 8
  %13 = alloca %struct.ForEachState, align 8
  store ptr %0, ptr %3, align 8
  store ptr %1, ptr %4, align 8
  call void @llvm.lifetime.start.p0(i64 8, ptr %5) #10
  call void @llvm.lifetime.start.p0(i64 1, ptr %6) #10
  call void @llvm.lifetime.start.p0(i64 8, ptr %7) #10
  call void @llvm.lifetime.start.p0(i64 8, ptr %8) #10
  call void @llvm.lifetime.start.p0(i64 8, ptr %9) #10
  call void @llvm.lifetime.start.p0(i64 8, ptr %10) #10
  %14 = load ptr, ptr %4, align 8
  %15 = getelementptr inbounds nuw %struct.QueryDesc, ptr %14, i32 0, i32 10
  %16 = load ptr, ptr %15, align 8
  %17 = getelementptr inbounds nuw %struct.EState, ptr %16, i32 0, i32 18
  %18 = load ptr, ptr %17, align 8
  store ptr %18, ptr %7, align 8
  %19 = load ptr, ptr %4, align 8
  %20 = getelementptr inbounds nuw %struct.QueryDesc, ptr %19, i32 0, i32 10
  %21 = load ptr, ptr %20, align 8
  %22 = getelementptr inbounds nuw %struct.EState, ptr %21, i32 0, i32 20
  %23 = load ptr, ptr %22, align 8
  store ptr %23, ptr %8, align 8
  %24 = load ptr, ptr %4, align 8
  %25 = getelementptr inbounds nuw %struct.QueryDesc, ptr %24, i32 0, i32 10
  %26 = load ptr, ptr %25, align 8
  %27 = getelementptr inbounds nuw %struct.EState, ptr %26, i32 0, i32 21
  %28 = load ptr, ptr %27, align 8
  store ptr %28, ptr %9, align 8
  %29 = load ptr, ptr %3, align 8
  call void @ExplainOpenGroup(ptr noundef @.str.44, ptr noundef @.str.44, i1 noundef zeroext false, ptr noundef %29)
  %30 = load ptr, ptr %7, align 8
  %31 = call i32 @list_length(ptr noundef %30)
  %32 = icmp sgt i32 %31, 1
  br i1 %32, label %39, label %33

33:                                               ; preds = %2
  %34 = load ptr, ptr %8, align 8
  %35 = icmp ne ptr %34, null
  br i1 %35, label %39, label %36

36:                                               ; preds = %33
  %37 = load ptr, ptr %9, align 8
  %38 = icmp ne ptr %37, null
  br label %39

39:                                               ; preds = %36, %33, %2
  %40 = phi i1 [ true, %33 ], [ true, %2 ], [ %38, %36 ]
  %41 = zext i1 %40 to i8
  store i8 %41, ptr %6, align 1
  call void @llvm.lifetime.start.p0(i64 16, ptr %11) #10
  %42 = getelementptr inbounds nuw %struct.ForEachState, ptr %11, i32 0, i32 0
  %43 = load ptr, ptr %7, align 8
  store ptr %43, ptr %42, align 8
  %44 = getelementptr inbounds nuw %struct.ForEachState, ptr %11, i32 0, i32 1
  store i32 0, ptr %44, align 8
  %45 = getelementptr i8, ptr %11, i64 12
  call void @llvm.memset.p0.i64(ptr align 4 %45, i8 0, i64 4, i1 false)
  br label %46

46:                                               ; preds = %79, %39
  %47 = getelementptr inbounds nuw %struct.ForEachState, ptr %11, i32 0, i32 0
  %48 = load ptr, ptr %47, align 8
  %49 = icmp ne ptr %48, null
  br i1 %49, label %50, label %67

50:                                               ; preds = %46
  %51 = getelementptr inbounds nuw %struct.ForEachState, ptr %11, i32 0, i32 1
  %52 = load i32, ptr %51, align 8
  %53 = getelementptr inbounds nuw %struct.ForEachState, ptr %11, i32 0, i32 0
  %54 = load ptr, ptr %53, align 8
  %55 = getelementptr inbounds nuw %struct.List, ptr %54, i32 0, i32 1
  %56 = load i32, ptr %55, align 4
  %57 = icmp slt i32 %52, %56
  br i1 %57, label %58, label %67

58:                                               ; preds = %50
  %59 = getelementptr inbounds nuw %struct.ForEachState, ptr %11, i32 0, i32 0
  %60 = load ptr, ptr %59, align 8
  %61 = getelementptr inbounds nuw %struct.List, ptr %60, i32 0, i32 3
  %62 = load ptr, ptr %61, align 8
  %63 = getelementptr inbounds nuw %struct.ForEachState, ptr %11, i32 0, i32 1
  %64 = load i32, ptr %63, align 8
  %65 = sext i32 %64 to i64
  %66 = getelementptr inbounds %union.ListCell, ptr %62, i64 %65
  store ptr %66, ptr %10, align 8
  br label %68

67:                                               ; preds = %50, %46
  store ptr null, ptr %10, align 8
  br label %68

68:                                               ; preds = %67, %58
  %69 = phi i32 [ 1, %58 ], [ 0, %67 ]
  %70 = icmp ne i32 %69, 0
  br i1 %70, label %72, label %71

71:                                               ; preds = %68
  call void @llvm.lifetime.end.p0(i64 16, ptr %11) #10
  br label %83

72:                                               ; preds = %68
  %73 = load ptr, ptr %10, align 8
  %74 = load ptr, ptr %73, align 8
  store ptr %74, ptr %5, align 8
  %75 = load ptr, ptr %5, align 8
  %76 = load i8, ptr %6, align 1, !range !6, !noundef !7
  %77 = trunc i8 %76 to i1
  %78 = load ptr, ptr %3, align 8
  call void @report_triggers(ptr noundef %75, i1 noundef zeroext %77, ptr noundef %78)
  br label %79

79:                                               ; preds = %72
  %80 = getelementptr inbounds nuw %struct.ForEachState, ptr %11, i32 0, i32 1
  %81 = load i32, ptr %80, align 8
  %82 = add i32 %81, 1
  store i32 %82, ptr %80, align 8
  br label %46, !llvm.loop !11

83:                                               ; preds = %71
  call void @llvm.lifetime.start.p0(i64 16, ptr %12) #10
  %84 = getelementptr inbounds nuw %struct.ForEachState, ptr %12, i32 0, i32 0
  %85 = load ptr, ptr %8, align 8
  store ptr %85, ptr %84, align 8
  %86 = getelementptr inbounds nuw %struct.ForEachState, ptr %12, i32 0, i32 1
  store i32 0, ptr %86, align 8
  %87 = getelementptr i8, ptr %12, i64 12
  call void @llvm.memset.p0.i64(ptr align 4 %87, i8 0, i64 4, i1 false)
  br label %88

88:                                               ; preds = %121, %83
  %89 = getelementptr inbounds nuw %struct.ForEachState, ptr %12, i32 0, i32 0
  %90 = load ptr, ptr %89, align 8
  %91 = icmp ne ptr %90, null
  br i1 %91, label %92, label %109

92:                                               ; preds = %88
  %93 = getelementptr inbounds nuw %struct.ForEachState, ptr %12, i32 0, i32 1
  %94 = load i32, ptr %93, align 8
  %95 = getelementptr inbounds nuw %struct.ForEachState, ptr %12, i32 0, i32 0
  %96 = load ptr, ptr %95, align 8
  %97 = getelementptr inbounds nuw %struct.List, ptr %96, i32 0, i32 1
  %98 = load i32, ptr %97, align 4
  %99 = icmp slt i32 %94, %98
  br i1 %99, label %100, label %109

100:                                              ; preds = %92
  %101 = getelementptr inbounds nuw %struct.ForEachState, ptr %12, i32 0, i32 0
  %102 = load ptr, ptr %101, align 8
  %103 = getelementptr inbounds nuw %struct.List, ptr %102, i32 0, i32 3
  %104 = load ptr, ptr %103, align 8
  %105 = getelementptr inbounds nuw %struct.ForEachState, ptr %12, i32 0, i32 1
  %106 = load i32, ptr %105, align 8
  %107 = sext i32 %106 to i64
  %108 = getelementptr inbounds %union.ListCell, ptr %104, i64 %107
  store ptr %108, ptr %10, align 8
  br label %110

109:                                              ; preds = %92, %88
  store ptr null, ptr %10, align 8
  br label %110

110:                                              ; preds = %109, %100
  %111 = phi i32 [ 1, %100 ], [ 0, %109 ]
  %112 = icmp ne i32 %111, 0
  br i1 %112, label %114, label %113

113:                                              ; preds = %110
  call void @llvm.lifetime.end.p0(i64 16, ptr %12) #10
  br label %125

114:                                              ; preds = %110
  %115 = load ptr, ptr %10, align 8
  %116 = load ptr, ptr %115, align 8
  store ptr %116, ptr %5, align 8
  %117 = load ptr, ptr %5, align 8
  %118 = load i8, ptr %6, align 1, !range !6, !noundef !7
  %119 = trunc i8 %118 to i1
  %120 = load ptr, ptr %3, align 8
  call void @report_triggers(ptr noundef %117, i1 noundef zeroext %119, ptr noundef %120)
  br label %121

121:                                              ; preds = %114
  %122 = getelementptr inbounds nuw %struct.ForEachState, ptr %12, i32 0, i32 1
  %123 = load i32, ptr %122, align 8
  %124 = add i32 %123, 1
  store i32 %124, ptr %122, align 8
  br label %88, !llvm.loop !12

125:                                              ; preds = %113
  call void @llvm.lifetime.start.p0(i64 16, ptr %13) #10
  %126 = getelementptr inbounds nuw %struct.ForEachState, ptr %13, i32 0, i32 0
  %127 = load ptr, ptr %9, align 8
  store ptr %127, ptr %126, align 8
  %128 = getelementptr inbounds nuw %struct.ForEachState, ptr %13, i32 0, i32 1
  store i32 0, ptr %128, align 8
  %129 = getelementptr i8, ptr %13, i64 12
  call void @llvm.memset.p0.i64(ptr align 4 %129, i8 0, i64 4, i1 false)
  br label %130

130:                                              ; preds = %163, %125
  %131 = getelementptr inbounds nuw %struct.ForEachState, ptr %13, i32 0, i32 0
  %132 = load ptr, ptr %131, align 8
  %133 = icmp ne ptr %132, null
  br i1 %133, label %134, label %151

134:                                              ; preds = %130
  %135 = getelementptr inbounds nuw %struct.ForEachState, ptr %13, i32 0, i32 1
  %136 = load i32, ptr %135, align 8
  %137 = getelementptr inbounds nuw %struct.ForEachState, ptr %13, i32 0, i32 0
  %138 = load ptr, ptr %137, align 8
  %139 = getelementptr inbounds nuw %struct.List, ptr %138, i32 0, i32 1
  %140 = load i32, ptr %139, align 4
  %141 = icmp slt i32 %136, %140
  br i1 %141, label %142, label %151

142:                                              ; preds = %134
  %143 = getelementptr inbounds nuw %struct.ForEachState, ptr %13, i32 0, i32 0
  %144 = load ptr, ptr %143, align 8
  %145 = getelementptr inbounds nuw %struct.List, ptr %144, i32 0, i32 3
  %146 = load ptr, ptr %145, align 8
  %147 = getelementptr inbounds nuw %struct.ForEachState, ptr %13, i32 0, i32 1
  %148 = load i32, ptr %147, align 8
  %149 = sext i32 %148 to i64
  %150 = getelementptr inbounds %union.ListCell, ptr %146, i64 %149
  store ptr %150, ptr %10, align 8
  br label %152

151:                                              ; preds = %134, %130
  store ptr null, ptr %10, align 8
  br label %152

152:                                              ; preds = %151, %142
  %153 = phi i32 [ 1, %142 ], [ 0, %151 ]
  %154 = icmp ne i32 %153, 0
  br i1 %154, label %156, label %155

155:                                              ; preds = %152
  call void @llvm.lifetime.end.p0(i64 16, ptr %13) #10
  br label %167

156:                                              ; preds = %152
  %157 = load ptr, ptr %10, align 8
  %158 = load ptr, ptr %157, align 8
  store ptr %158, ptr %5, align 8
  %159 = load ptr, ptr %5, align 8
  %160 = load i8, ptr %6, align 1, !range !6, !noundef !7
  %161 = trunc i8 %160 to i1
  %162 = load ptr, ptr %3, align 8
  call void @report_triggers(ptr noundef %159, i1 noundef zeroext %161, ptr noundef %162)
  br label %163

163:                                              ; preds = %156
  %164 = getelementptr inbounds nuw %struct.ForEachState, ptr %13, i32 0, i32 1
  %165 = load i32, ptr %164, align 8
  %166 = add i32 %165, 1
  store i32 %166, ptr %164, align 8
  br label %130, !llvm.loop !13

167:                                              ; preds = %155
  %168 = load ptr, ptr %3, align 8
  call void @ExplainCloseGroup(ptr noundef @.str.44, ptr noundef @.str.44, i1 noundef zeroext false, ptr noundef %168)
  call void @llvm.lifetime.end.p0(i64 8, ptr %10) #10
  call void @llvm.lifetime.end.p0(i64 8, ptr %9) #10
  call void @llvm.lifetime.end.p0(i64 8, ptr %8) #10
  call void @llvm.lifetime.end.p0(i64 8, ptr %7) #10
  call void @llvm.lifetime.end.p0(i64 1, ptr %6) #10
  call void @llvm.lifetime.end.p0(i64 8, ptr %5) #10
  ret void
}