; Function Attrs: nounwind uwtable
define dso_local void @ExplainPrintTriggers(ptr noundef captures(none) %0, ptr noundef readonly captures(none) %1) local_unnamed_addr #0 {
  %3 = getelementptr inbounds nuw i8, ptr %1, i64 80
  %4 = load ptr, ptr %3, align 8
  %5 = getelementptr inbounds nuw i8, ptr %4, i64 136
  %6 = load ptr, ptr %5, align 8
  %7 = getelementptr inbounds nuw i8, ptr %4, i64 152
  %8 = load ptr, ptr %7, align 8
  %9 = getelementptr inbounds nuw i8, ptr %4, i64 160
  %10 = load ptr, ptr %9, align 8
  tail call void @ExplainOpenGroup(ptr noundef nonnull @.str.44, ptr noundef nonnull @.str.44, i1 noundef zeroext false, ptr noundef %0)
  %.not.i = icmp eq ptr %6, null
  br i1 %.not.i, label %list_length.exit.thread, label %.lr.ph

list_length.exit.thread:                          ; preds = %2
  %.not = icmp eq ptr %8, null
  %11 = icmp ne ptr %10, null
  br i1 %.not, label %._crit_edge66, label %.lr.ph64

.lr.ph:                                           ; preds = %2
  %12 = getelementptr inbounds nuw i8, ptr %6, i64 4
  %13 = load i32, ptr %12, align 4
  %14 = icmp sgt i32 %13, 1
  %15 = icmp ne ptr %8, null
  %or.cond = select i1 %14, i1 true, i1 %15
  %16 = icmp ne ptr %10, null
  %spec.select = select i1 %or.cond, i1 true, i1 %16
  %17 = getelementptr inbounds nuw i8, ptr %6, i64 4
  %18 = getelementptr inbounds nuw i8, ptr %6, i64 16
  %19 = load i32, ptr %17, align 4
  %20 = icmp sgt i32 %19, 0
  br i1 %20, label %.lr.ph61, label %._crit_edge59

._crit_edge59:                                    ; preds = %.lr.ph61, %.lr.ph
  br i1 %15, label %.lr.ph64, label %._crit_edge66

.lr.ph64:                                         ; preds = %list_length.exit.thread, %._crit_edge59
  %spec.select8587 = phi i1 [ true, %list_length.exit.thread ], [ %spec.select, %._crit_edge59 ]
  %21 = getelementptr inbounds nuw i8, ptr %8, i64 4
  %22 = getelementptr inbounds nuw i8, ptr %8, i64 16
  %23 = load i32, ptr %21, align 4
  %24 = icmp sgt i32 %23, 0
  br i1 %24, label %.lr.ph68, label %._crit_edge66

.lr.ph68:                                         ; preds = %.lr.ph64, %.lr.ph68
  %indvars.iv77 = phi i64 [ %indvars.iv.next78, %.lr.ph68 ], [ 0, %.lr.ph64 ]
  %25 = load ptr, ptr %22, align 8
  %26 = getelementptr inbounds nuw %union.ListCell, ptr %25, i64 %indvars.iv77
  %27 = load ptr, ptr %26, align 8
  tail call fastcc void @report_triggers(ptr noundef %27, i1 noundef zeroext %spec.select8587, ptr noundef %0)
  %indvars.iv.next78 = add nuw nsw i64 %indvars.iv77, 1
  %28 = load i32, ptr %21, align 4
  %29 = sext i32 %28 to i64
  %30 = icmp slt i64 %indvars.iv.next78, %29
  br i1 %30, label %.lr.ph68, label %._crit_edge66

.lr.ph61:                                         ; preds = %.lr.ph, %.lr.ph61
  %indvars.iv = phi i64 [ %indvars.iv.next, %.lr.ph61 ], [ 0, %.lr.ph ]
  %31 = load ptr, ptr %18, align 8
  %32 = getelementptr inbounds nuw %union.ListCell, ptr %31, i64 %indvars.iv
  %33 = load ptr, ptr %32, align 8
  tail call fastcc void @report_triggers(ptr noundef %33, i1 noundef zeroext %spec.select, ptr noundef %0)
  %indvars.iv.next = add nuw nsw i64 %indvars.iv, 1
  %34 = load i32, ptr %17, align 4
  %35 = sext i32 %34 to i64
  %36 = icmp slt i64 %indvars.iv.next, %35
  br i1 %36, label %.lr.ph61, label %._crit_edge59

._crit_edge66:                                    ; preds = %.lr.ph68, %list_length.exit.thread, %.lr.ph64, %._crit_edge59
  %spec.select8586 = phi i1 [ %11, %list_length.exit.thread ], [ %spec.select8587, %.lr.ph64 ], [ %spec.select, %._crit_edge59 ], [ %spec.select8587, %.lr.ph68 ]
  %37 = getelementptr inbounds nuw i8, ptr %10, i64 4
  %.not46 = icmp eq ptr %10, null
  br i1 %.not46, label %._crit_edge72, label %.lr.ph71

.lr.ph71:                                         ; preds = %._crit_edge66
  %38 = getelementptr inbounds nuw i8, ptr %10, i64 16
  %39 = load i32, ptr %37, align 4
  %40 = icmp sgt i32 %39, 0
  br i1 %40, label %.lr.ph75, label %._crit_edge72

._crit_edge72:                                    ; preds = %.lr.ph75, %.lr.ph71, %._crit_edge66
  tail call void @ExplainCloseGroup(ptr noundef nonnull @.str.44, ptr nonnull poison, i1 noundef zeroext false, ptr noundef %0)
  ret void

.lr.ph75:                                         ; preds = %.lr.ph71, %.lr.ph75
  %indvars.iv80 = phi i64 [ %indvars.iv.next81, %.lr.ph75 ], [ 0, %.lr.ph71 ]
  %41 = load ptr, ptr %38, align 8
  %42 = getelementptr inbounds nuw %union.ListCell, ptr %41, i64 %indvars.iv80
  %43 = load ptr, ptr %42, align 8
  tail call fastcc void @report_triggers(ptr noundef %43, i1 noundef zeroext %spec.select8586, ptr noundef %0)
  %indvars.iv.next81 = add nuw nsw i64 %indvars.iv80, 1
  %44 = load i32, ptr %37, align 4
  %45 = sext i32 %44 to i64
  %46 = icmp slt i64 %indvars.iv.next81, %45
  br i1 %46, label %.lr.ph75, label %._crit_edge72
}